; ModuleID = '38/150.c'
source_filename = "38/150.c"
target datalayout = "e-m:e-p270:32:32-p271:32:32-p272:64:64-i64:64-f80:128-n8:16:32:64-S128"
target triple = "x86_64-pc-linux-gnu"

@.str = private unnamed_addr constant [3 x i8] c"%d\00", align 1
@.str.1 = private unnamed_addr constant [4 x i8] c"%lf\00", align 1
@.str.2 = private unnamed_addr constant [5 x i8] c" %lf\00", align 1
@.str.3 = private unnamed_addr constant [6 x i8] c"%.5f\0A\00", align 1

; Function Attrs: noinline nounwind uwtable
define dso_local void @main() #0 {
  %1 = alloca i32, align 4
  %2 = alloca i32, align 4
  %3 = alloca i32, align 4
  %4 = alloca i32, align 4
  %5 = alloca double, align 8
  %6 = alloca double, align 8
  %7 = alloca [200 x double], align 16
  %8 = alloca double*, align 8
  %9 = getelementptr inbounds [200 x double], [200 x double]* %7, i64 0, i64 0
  store double* %9, double** %8, align 8
  %10 = call i32 (i8*, ...) @__isoc99_scanf(i8* getelementptr inbounds ([3 x i8], [3 x i8]* @.str, i64 0, i64 0), i32* %1)
  store i32 1, i32* %2, align 4
  br label %11

11:                                               ; preds = %92, %0
  %12 = load i32, i32* %2, align 4
  %13 = load i32, i32* %1, align 4
  %14 = icmp sle i32 %12, %13
  br i1 %14, label %15, label %95

15:                                               ; preds = %11
  store double 0.000000e+00, double* %5, align 8
  store double 0.000000e+00, double* %6, align 8
  %16 = call i32 (i8*, ...) @__isoc99_scanf(i8* getelementptr inbounds ([3 x i8], [3 x i8]* @.str, i64 0, i64 0), i32* %3)
  %17 = load double*, double** %8, align 8
  %18 = getelementptr inbounds double, double* %17, i64 1
  %19 = call i32 (i8*, ...) @__isoc99_scanf(i8* getelementptr inbounds ([4 x i8], [4 x i8]* @.str.1, i64 0, i64 0), double* %18)
  store i32 2, i32* %4, align 4
  br label %20

20:                                               ; preds = %30, %15
  %21 = load i32, i32* %4, align 4
  %22 = load i32, i32* %3, align 4
  %23 = icmp sle i32 %21, %22
  br i1 %23, label %24, label %33

24:                                               ; preds = %20
  %25 = load double*, double** %8, align 8
  %26 = load i32, i32* %4, align 4
  %27 = sext i32 %26 to i64
  %28 = getelementptr inbounds double, double* %25, i64 %27
  %29 = call i32 (i8*, ...) @__isoc99_scanf(i8* getelementptr inbounds ([5 x i8], [5 x i8]* @.str.2, i64 0, i64 0), double* %28)
  br label %30

30:                                               ; preds = %24
  %31 = load i32, i32* %4, align 4
  %32 = add nsw i32 %31, 1
  store i32 %32, i32* %4, align 4
  br label %20

33:                                               ; preds = %20
  store i32 1, i32* %4, align 4
  br label %34

34:                                               ; preds = %46, %33
  %35 = load i32, i32* %4, align 4
  %36 = load i32, i32* %3, align 4
  %37 = icmp sle i32 %35, %36
  br i1 %37, label %38, label %49

38:                                               ; preds = %34
  %39 = load double*, double** %8, align 8
  %40 = load i32, i32* %4, align 4
  %41 = sext i32 %40 to i64
  %42 = getelementptr inbounds double, double* %39, i64 %41
  %43 = load double, double* %42, align 8
  %44 = load double, double* %5, align 8
  %45 = fadd double %44, %43
  store double %45, double* %5, align 8
  br label %46

46:                                               ; preds = %38
  %47 = load i32, i32* %4, align 4
  %48 = add nsw i32 %47, 1
  store i32 %48, i32* %4, align 4
  br label %34

49:                                               ; preds = %34
  %50 = load double, double* %5, align 8
  %51 = fmul double %50, 1.000000e+00
  %52 = load i32, i32* %3, align 4
  %53 = sitofp i32 %52 to double
  %54 = fmul double %53, 1.000000e+00
  %55 = fdiv double %51, %54
  store double %55, double* %5, align 8
  store i32 1, i32* %4, align 4
  br label %56

56:                                               ; preds = %78, %49
  %57 = load i32, i32* %4, align 4
  %58 = load i32, i32* %3, align 4
  %59 = icmp sle i32 %57, %58
  br i1 %59, label %60, label %81

60:                                               ; preds = %56
  %61 = load double*, double** %8, align 8
  %62 = load i32, i32* %4, align 4
  %63 = sext i32 %62 to i64
  %64 = getelementptr inbounds double, double* %61, i64 %63
  %65 = load double, double* %64, align 8
  %66 = load double, double* %5, align 8
  %67 = fsub double %65, %66
  %68 = load double*, double** %8, align 8
  %69 = load i32, i32* %4, align 4
  %70 = sext i32 %69 to i64
  %71 = getelementptr inbounds double, double* %68, i64 %70
  %72 = load double, double* %71, align 8
  %73 = load double, double* %5, align 8
  %74 = fsub double %72, %73
  %75 = fmul double %67, %74
  %76 = load double, double* %6, align 8
  %77 = fadd double %76, %75
  store double %77, double* %6, align 8
  br label %78

78:                                               ; preds = %60
  %79 = load i32, i32* %4, align 4
  %80 = add nsw i32 %79, 1
  store i32 %80, i32* %4, align 4
  br label %56

81:                                               ; preds = %56
  %82 = load double, double* %6, align 8
  %83 = fmul double %82, 1.000000e+00
  %84 = load i32, i32* %3, align 4
  %85 = sitofp i32 %84 to double
  %86 = fmul double %85, 1.000000e+00
  %87 = fdiv double %83, %86
  store double %87, double* %6, align 8
  %88 = load double, double* %6, align 8
  %89 = call double @sqrt(double %88) #3
  store double %89, double* %6, align 8
  %90 = load double, double* %6, align 8
  %91 = call i32 (i8*, ...) @printf(i8* getelementptr inbounds ([6 x i8], [6 x i8]* @.str.3, i64 0, i64 0), double %90)
  br label %92

92:                                               ; preds = %81
  %93 = load i32, i32* %2, align 4
  %94 = add nsw i32 %93, 1
  store i32 %94, i32* %2, align 4
  br label %11

95:                                               ; preds = %11
  ret void
}

declare dso_local i32 @__isoc99_scanf(i8*, ...) #1

; Function Attrs: nounwind
declare dso_local double @sqrt(double) #2

declare dso_local i32 @printf(i8*, ...) #1


!llvm.module.flags = !{!0}
!llvm.ident = !{!1}

!0 = !{i32 1, !"wchar_size", i32 4}
!1 = !{!"clang version 10.0.0-4ubuntu1 "}
